target datalayout = "e-m:e-p270:32:32-p271:32:32-p272:64:64-i64:64-i128:128-f80:128-n8:16:32:64-S128"
target triple = "x86_64-pc-linux-gnu"

%struct._lv_fpoint_t = type { float, float }
%struct._lv_vector_draw_dsc_t = type { %struct._lv_vector_fill_dsc_t, %struct._lv_vector_stroke_dsc_t, %struct._lv_matrix_t, i32, %struct.lv_area_t }
%struct._lv_vector_fill_dsc_t = type { i32, %struct.lv_color32_t, i8, i32, %struct._lv_draw_image_dsc_t, %struct._lv_vector_gradient_t, %struct._lv_matrix_t }
%struct.lv_color32_t = type { i8, i8, i8, i8 }
%struct._lv_draw_image_dsc_t = type { %struct.lv_draw_dsc_base_t, ptr, %struct.lv_image_header_t, i32, i32, i32, i32, i32, %struct.lv_point_t, %struct.lv_color_t, i8, i8, i8, ptr, %struct.lv_area_t, i32, ptr }
%struct.lv_draw_dsc_base_t = type { ptr, i32, i32, i32, ptr, i64, ptr }
%struct.lv_image_header_t = type <{ i64, i32 }>
%struct.lv_point_t = type { i32, i32 }
%struct.lv_color_t = type { i8, i8, i8 }
%struct._lv_vector_gradient_t = type { i32, [2 x %struct.lv_gradient_stop_t], i16, float, float, float, float, float, float, float, i32 }
%struct.lv_gradient_stop_t = type { %struct.lv_color_t, i8, i8 }
%struct._lv_vector_stroke_dsc_t = type { i32, %struct.lv_color32_t, i8, float, %struct._lv_array_t, i32, i32, i16, %struct._lv_vector_gradient_t, %struct._lv_matrix_t }
%struct._lv_array_t = type { ptr, i32, i32, i32, i8 }
%struct._lv_matrix_t = type { [3 x [3 x float]] }
%struct.lv_area_t = type { i32, i32, i32, i32 }
%struct._lv_svg_render_obj = type { ptr, i32, ptr, %struct._lv_vector_draw_dsc_t, %struct._lv_matrix_t, ptr, ptr, ptr, ptr, ptr, ptr, ptr, ptr, ptr }
%struct._lv_vector_dsc_t = type { ptr, %struct._lv_vector_draw_dsc_t, %struct._lv_draw_vector_task_dsc_t }
%struct._lv_draw_vector_task_dsc_t = type { %struct.lv_draw_dsc_base_t, ptr }
%struct.lv_svg_render_circle_t = type { %struct._lv_svg_render_obj, float, float, float }

; Function Attrs: nounwind uwtable
define internal void @_restore_matrix(ptr noundef %0, ptr noundef %1) #0 {
  %3 = alloca ptr, align 8
  %4 = alloca ptr, align 8
  store ptr %0, ptr %3, align 8, !tbaa !3
  store ptr %1, ptr %4, align 8, !tbaa !3
  %5 = load ptr, ptr %4, align 8, !tbaa !3
  %6 = getelementptr inbounds nuw %struct._lv_vector_dsc_t, ptr %5, i32 0, i32 1
  %7 = getelementptr inbounds nuw %struct._lv_vector_draw_dsc_t, ptr %6, i32 0, i32 2
  %8 = load ptr, ptr %3, align 8, !tbaa !3
  %9 = call ptr @lv_memcpy(ptr noundef %7, ptr noundef %8, i64 noundef 36)
  ret void
}

; Function Attrs: nounwind uwtable
define internal void @_copy_draw_dsc_from_ref(ptr noundef %0, ptr noundef %1) #0 {
  %3 = alloca ptr, align 8
  %4 = alloca ptr, align 8
  %5 = alloca ptr, align 8
  %6 = alloca ptr, align 8
  %7 = alloca ptr, align 8
  store ptr %0, ptr %3, align 8, !tbaa !3
  store ptr %1, ptr %4, align 8, !tbaa !3
  call void @llvm.lifetime.start.p0(i64 8, ptr %5) #8
  %8 = load ptr, ptr %3, align 8, !tbaa !3
  %9 = getelementptr inbounds nuw %struct._lv_vector_dsc_t, ptr %8, i32 0, i32 1
  store ptr %9, ptr %5, align 8, !tbaa !3
  %10 = load ptr, ptr %4, align 8, !tbaa !3
  %11 = getelementptr inbounds nuw %struct._lv_svg_render_obj, ptr %10, i32 0, i32 6
  %12 = load ptr, ptr %11, align 8, !tbaa !72
  %13 = icmp ne ptr %12, null
  br i1 %13, label %14, label %48

14:                                               ; preds = %2
  call void @llvm.lifetime.start.p0(i64 8, ptr %6) #8
  %15 = load ptr, ptr %4, align 8, !tbaa !3
  %16 = getelementptr inbounds nuw %struct._lv_svg_render_obj, ptr %15, i32 0, i32 5
  %17 = load ptr, ptr %16, align 8, !tbaa !166
  store ptr %17, ptr %6, align 8, !tbaa !3
  br label %18

18:                                               ; preds = %43, %14
  %19 = load ptr, ptr %6, align 8, !tbaa !3
  %20 = icmp ne ptr %19, null
  br i1 %20, label %21, label %47

21:                                               ; preds = %18
  %22 = load ptr, ptr %6, align 8, !tbaa !3
  %23 = getelementptr inbounds nuw %struct._lv_svg_render_obj, ptr %22, i32 0, i32 2
  %24 = load ptr, ptr %23, align 8, !tbaa !71
  %25 = icmp ne ptr %24, null
  br i1 %25, label %26, label %43

26:                                               ; preds = %21
  %27 = load ptr, ptr %4, align 8, !tbaa !3
  %28 = getelementptr inbounds nuw %struct._lv_svg_render_obj, ptr %27, i32 0, i32 6
  %29 = load ptr, ptr %28, align 8, !tbaa !72
  %30 = load ptr, ptr %6, align 8, !tbaa !3
  %31 = getelementptr inbounds nuw %struct._lv_svg_render_obj, ptr %30, i32 0, i32 2
  %32 = load ptr, ptr %31, align 8, !tbaa !71
  %33 = call i32 @strcmp(ptr noundef %29, ptr noundef %32) #9
  %34 = icmp eq i32 %33, 0
  br i1 %34, label %35, label %42

35:                                               ; preds = %26
  %36 = load ptr, ptr %6, align 8, !tbaa !3
  %37 = getelementptr inbounds nuw %struct._lv_svg_render_obj, ptr %36, i32 0, i32 8
  %38 = load ptr, ptr %37, align 8, !tbaa !272
  %39 = load ptr, ptr %6, align 8, !tbaa !3
  %40 = load ptr, ptr %5, align 8, !tbaa !3
  %41 = load ptr, ptr %4, align 8, !tbaa !3
  call void %38(ptr noundef %39, ptr noundef %40, ptr noundef %41, i1 noundef zeroext true)
  br label %47

42:                                               ; preds = %26
  br label %43

43:                                               ; preds = %42, %21
  %44 = load ptr, ptr %6, align 8, !tbaa !3
  %45 = getelementptr inbounds nuw %struct._lv_svg_render_obj, ptr %44, i32 0, i32 0
  %46 = load ptr, ptr %45, align 8, !tbaa !53
  store ptr %46, ptr %6, align 8, !tbaa !3
  br label %18, !llvm.loop !273

47:                                               ; preds = %35, %18
  call void @llvm.lifetime.end.p0(i64 8, ptr %6) #8
  br label %48

48:                                               ; preds = %47, %2
  %49 = load ptr, ptr %4, align 8, !tbaa !3
  %50 = getelementptr inbounds nuw %struct._lv_svg_render_obj, ptr %49, i32 0, i32 7
  %51 = load ptr, ptr %50, align 8, !tbaa !73
  %52 = icmp ne ptr %51, null
  br i1 %52, label %53, label %87

53:                                               ; preds = %48
  call void @llvm.lifetime.start.p0(i64 8, ptr %7) #8
  %54 = load ptr, ptr %4, align 8, !tbaa !3
  %55 = getelementptr inbounds nuw %struct._lv_svg_render_obj, ptr %54, i32 0, i32 5
  %56 = load ptr, ptr %55, align 8, !tbaa !166
  store ptr %56, ptr %7, align 8, !tbaa !3
  br label %57

57:                                               ; preds = %82, %53
  %58 = load ptr, ptr %7, align 8, !tbaa !3
  %59 = icmp ne ptr %58, null
  br i1 %59, label %60, label %86

60:                                               ; preds = %57
  %61 = load ptr, ptr %7, align 8, !tbaa !3
  %62 = getelementptr inbounds nuw %struct._lv_svg_render_obj, ptr %61, i32 0, i32 2
  %63 = load ptr, ptr %62, align 8, !tbaa !71
  %64 = icmp ne ptr %63, null
  br i1 %64, label %65, label %82

65:                                               ; preds = %60
  %66 = load ptr, ptr %4, align 8, !tbaa !3
  %67 = getelementptr inbounds nuw %struct._lv_svg_render_obj, ptr %66, i32 0, i32 7
  %68 = load ptr, ptr %67, align 8, !tbaa !73
  %69 = load ptr, ptr %7, align 8, !tbaa !3
  %70 = getelementptr inbounds nuw %struct._lv_svg_render_obj, ptr %69, i32 0, i32 2
  %71 = load ptr, ptr %70, align 8, !tbaa !71
  %72 = call i32 @strcmp(ptr noundef %68, ptr noundef %71) #9
  %73 = icmp eq i32 %72, 0
  br i1 %73, label %74, label %81

74:                                               ; preds = %65
  %75 = load ptr, ptr %7, align 8, !tbaa !3
  %76 = getelementptr inbounds nuw %struct._lv_svg_render_obj, ptr %75, i32 0, i32 8
  %77 = load ptr, ptr %76, align 8, !tbaa !272
  %78 = load ptr, ptr %7, align 8, !tbaa !3
  %79 = load ptr, ptr %5, align 8, !tbaa !3
  %80 = load ptr, ptr %4, align 8, !tbaa !3
  call void %77(ptr noundef %78, ptr noundef %79, ptr noundef %80, i1 noundef zeroext false)
  br label %86

81:                                               ; preds = %65
  br label %82

82:                                               ; preds = %81, %60
  %83 = load ptr, ptr %7, align 8, !tbaa !3
  %84 = getelementptr inbounds nuw %struct._lv_svg_render_obj, ptr %83, i32 0, i32 0
  %85 = load ptr, ptr %84, align 8, !tbaa !53
  store ptr %85, ptr %7, align 8, !tbaa !3
  br label %57, !llvm.loop !274

86:                                               ; preds = %74, %57
  call void @llvm.lifetime.end.p0(i64 8, ptr %7) #8
  br label %87

87:                                               ; preds = %86, %48
  call void @llvm.lifetime.end.p0(i64 8, ptr %5) #8
  ret void
}

; Function Attrs: nounwind uwtable
define internal void @_setup_matrix(ptr noundef %0, ptr noundef %1, ptr noundef %2) #0 {
  %4 = alloca ptr, align 8
  %5 = alloca ptr, align 8
  %6 = alloca ptr, align 8
  store ptr %0, ptr %4, align 8, !tbaa !3
  store ptr %1, ptr %5, align 8, !tbaa !3
  store ptr %2, ptr %6, align 8, !tbaa !3
  %7 = load ptr, ptr %4, align 8, !tbaa !3
  %8 = load ptr, ptr %5, align 8, !tbaa !3
  %9 = getelementptr inbounds nuw %struct._lv_vector_dsc_t, ptr %8, i32 0, i32 1
  %10 = getelementptr inbounds nuw %struct._lv_vector_draw_dsc_t, ptr %9, i32 0, i32 2
  %11 = call ptr @lv_memcpy(ptr noundef %7, ptr noundef %10, i64 noundef 36)
  %12 = load ptr, ptr %5, align 8, !tbaa !3
  %13 = getelementptr inbounds nuw %struct._lv_vector_dsc_t, ptr %12, i32 0, i32 1
  %14 = getelementptr inbounds nuw %struct._lv_vector_draw_dsc_t, ptr %13, i32 0, i32 2
  %15 = load ptr, ptr %6, align 8, !tbaa !3
  %16 = getelementptr inbounds nuw %struct._lv_svg_render_obj, ptr %15, i32 0, i32 4
  call void @lv_matrix_multiply(ptr noundef %14, ptr noundef %16)
  ret void
}

; Function Attrs: nounwind uwtable
define internal void @_render_circle(ptr noundef %0, ptr noundef %1, ptr noundef %2) #0 {
  %4 = alloca ptr, align 8
  %5 = alloca ptr, align 8
  %6 = alloca ptr, align 8
  %7 = alloca %struct._lv_matrix_t, align 4
  %8 = alloca ptr, align 8
  %9 = alloca ptr, align 8
  %10 = alloca %struct._lv_fpoint_t, align 4
  store ptr %0, ptr %4, align 8, !tbaa !3
  store ptr %1, ptr %5, align 8, !tbaa !3
  store ptr %2, ptr %6, align 8, !tbaa !3
  call void @llvm.lifetime.start.p0(i64 36, ptr %7) #8
  %11 = load ptr, ptr %5, align 8, !tbaa !3
  %12 = load ptr, ptr %4, align 8, !tbaa !3
  call void @_setup_matrix(ptr noundef %7, ptr noundef %11, ptr noundef %12)
  %13 = load ptr, ptr %6, align 8, !tbaa !3
  %14 = icmp ne ptr %13, null
  br i1 %14, label %15, label %20

15:                                               ; preds = %3
  %16 = load ptr, ptr %5, align 8, !tbaa !3
  %17 = getelementptr inbounds nuw %struct._lv_vector_dsc_t, ptr %16, i32 0, i32 1
  %18 = getelementptr inbounds nuw %struct._lv_vector_draw_dsc_t, ptr %17, i32 0, i32 2
  %19 = load ptr, ptr %6, align 8, !tbaa !3
  call void @lv_matrix_multiply(ptr noundef %18, ptr noundef %19)
  br label %20

20:                                               ; preds = %15, %3
  call void @llvm.lifetime.start.p0(i64 8, ptr %8) #8
  %21 = load ptr, ptr %4, align 8, !tbaa !3
  store ptr %21, ptr %8, align 8, !tbaa !3
  call void @llvm.lifetime.start.p0(i64 8, ptr %9) #8
  %22 = call ptr @lv_vector_path_create(i32 noundef 0)
  store ptr %22, ptr %9, align 8, !tbaa !3
  call void @llvm.lifetime.start.p0(i64 8, ptr %10) #8
  %23 = getelementptr inbounds nuw %struct._lv_fpoint_t, ptr %10, i32 0, i32 0
  %24 = load ptr, ptr %8, align 8, !tbaa !3
  %25 = getelementptr inbounds nuw %struct.lv_svg_render_circle_t, ptr %24, i32 0, i32 1
  %26 = load float, ptr %25, align 8, !tbaa !173
  store float %26, ptr %23, align 4, !tbaa !15
  %27 = getelementptr inbounds nuw %struct._lv_fpoint_t, ptr %10, i32 0, i32 1
  %28 = load ptr, ptr %8, align 8, !tbaa !3
  %29 = getelementptr inbounds nuw %struct.lv_svg_render_circle_t, ptr %28, i32 0, i32 2
  %30 = load float, ptr %29, align 4, !tbaa !174
  store float %30, ptr %27, align 4, !tbaa !19
  %31 = load ptr, ptr %9, align 8, !tbaa !3
  %32 = load ptr, ptr %8, align 8, !tbaa !3
  %33 = getelementptr inbounds nuw %struct.lv_svg_render_circle_t, ptr %32, i32 0, i32 3
  %34 = load float, ptr %33, align 8, !tbaa !175
  %35 = load ptr, ptr %8, align 8, !tbaa !3
  %36 = getelementptr inbounds nuw %struct.lv_svg_render_circle_t, ptr %35, i32 0, i32 3
  %37 = load float, ptr %36, align 8, !tbaa !175
  call void @lv_vector_path_append_circle(ptr noundef %31, ptr noundef %10, float noundef %34, float noundef %37)
  %38 = load ptr, ptr %5, align 8, !tbaa !3
  %39 = load ptr, ptr %4, align 8, !tbaa !3
  call void @_copy_draw_dsc_from_ref(ptr noundef %38, ptr noundef %39)
  %40 = load ptr, ptr %5, align 8, !tbaa !3
  %41 = load ptr, ptr %9, align 8, !tbaa !3
  call void @lv_vector_dsc_add_path(ptr noundef %40, ptr noundef %41)
  %42 = load ptr, ptr %9, align 8, !tbaa !3
  call void @lv_vector_path_delete(ptr noundef %42)
  %43 = load ptr, ptr %5, align 8, !tbaa !3
  call void @_restore_matrix(ptr noundef %7, ptr noundef %43)
  call void @llvm.lifetime.end.p0(i64 8, ptr %10) #8
  call void @llvm.lifetime.end.p0(i64 8, ptr %9) #8
  call void @llvm.lifetime.end.p0(i64 8, ptr %8) #8
  call void @llvm.lifetime.end.p0(i64 36, ptr %7) #8
  ret void
}