; Function Attrs: nounwind uwtable
define internal void @_render_circle(ptr noundef %0, ptr noundef %1, ptr noundef %2) #0 {
  %4 = alloca %struct._lv_matrix_t, align 4
  %5 = alloca %struct._lv_fpoint_t, align 4
  call void @llvm.lifetime.start.p0(i64 36, ptr nonnull %4) #9
  %6 = getelementptr inbounds nuw i8, ptr %1, i64 392
  %7 = call ptr @lv_memcpy(ptr noundef nonnull %4, ptr noundef nonnull %6, i64 noundef 36) #9
  %8 = getelementptr inbounds nuw i8, ptr %0, i64 464
  call void @lv_matrix_multiply(ptr noundef nonnull %6, ptr noundef nonnull %8) #9
  %.not = icmp eq ptr %2, null
  br i1 %.not, label %10, label %9

9:                                                ; preds = %3
  call void @lv_matrix_multiply(ptr noundef nonnull %6, ptr noundef nonnull %2) #9
  br label %10

10:                                               ; preds = %9, %3
  %11 = call ptr @lv_vector_path_create(i32 noundef 0) #9
  call void @llvm.lifetime.start.p0(i64 8, ptr nonnull %5) #9
  %12 = getelementptr inbounds nuw i8, ptr %0, i64 576
  %13 = load float, ptr %12, align 8, !tbaa !179
  store float %13, ptr %5, align 4, !tbaa !14
  %14 = getelementptr inbounds nuw i8, ptr %5, i64 4
  %15 = getelementptr inbounds nuw i8, ptr %0, i64 580
  %16 = load float, ptr %15, align 4, !tbaa !180
  store float %16, ptr %14, align 4, !tbaa !18
  %17 = getelementptr inbounds nuw i8, ptr %0, i64 584
  %18 = load float, ptr %17, align 8, !tbaa !181
  call void @lv_vector_path_append_circle(ptr noundef %11, ptr noundef nonnull %5, float noundef %18, float noundef %18) #9
  %19 = getelementptr inbounds nuw i8, ptr %1, i64 8
  %20 = getelementptr inbounds nuw i8, ptr %0, i64 512
  %21 = load ptr, ptr %20, align 8, !tbaa !124
  %.not.i = icmp eq ptr %21, null
  br i1 %.not.i, label %.loopexit31.i, label %22

22:                                               ; preds = %10
  %23 = getelementptr inbounds nuw i8, ptr %0, i64 504
  %.02334.i = load ptr, ptr %23, align 8, !tbaa !4
  %.not2635.i = icmp eq ptr %.02334.i, null
  br i1 %.not2635.i, label %.loopexit31.i, label %.lr.ph.i

.lr.ph.i:                                         ; preds = %22, %32
  %.02336.i = phi ptr [ %.023.i, %32 ], [ %.02334.i, %22 ]
  %24 = getelementptr inbounds nuw i8, ptr %.02336.i, i64 16
  %25 = load ptr, ptr %24, align 8, !tbaa !121
  %.not27.i = icmp eq ptr %25, null
  br i1 %.not27.i, label %32, label %26

26:                                               ; preds = %.lr.ph.i
  %27 = call i32 @strcmp(ptr noundef nonnull dereferenceable(1) %21, ptr noundef nonnull dereferenceable(1) %25) #10
  %28 = icmp eq i32 %27, 0
  br i1 %28, label %29, label %32

29:                                               ; preds = %26
  %30 = getelementptr inbounds nuw i8, ptr %.02336.i, i64 528
  %31 = load ptr, ptr %30, align 8, !tbaa !176
  call void %31(ptr noundef nonnull %.02336.i, ptr noundef nonnull %19, ptr noundef %0, i1 noundef zeroext true) #9
  br label %.loopexit31.i

32:                                               ; preds = %26, %.lr.ph.i
  %.023.i = load ptr, ptr %.02336.i, align 8, !tbaa !4
  %.not26.i = icmp eq ptr %.023.i, null
  br i1 %.not26.i, label %.loopexit31.i, label %.lr.ph.i, !llvm.loop !177

.loopexit31.i:                                    ; preds = %32, %29, %22, %10
  %33 = getelementptr inbounds nuw i8, ptr %0, i64 520
  %34 = load ptr, ptr %33, align 8, !tbaa !126
  %.not28.i = icmp eq ptr %34, null
  br i1 %.not28.i, label %_copy_draw_dsc_from_ref.exit, label %35

35:                                               ; preds = %.loopexit31.i
  %36 = getelementptr inbounds nuw i8, ptr %0, i64 504
  %.037.i = load ptr, ptr %36, align 8, !tbaa !4
  %.not2938.i = icmp eq ptr %.037.i, null
  br i1 %.not2938.i, label %_copy_draw_dsc_from_ref.exit, label %.lr.ph40.i

.lr.ph40.i:                                       ; preds = %35, %45
  %.039.i = phi ptr [ %.0.i, %45 ], [ %.037.i, %35 ]
  %37 = getelementptr inbounds nuw i8, ptr %.039.i, i64 16
  %38 = load ptr, ptr %37, align 8, !tbaa !121
  %.not30.i = icmp eq ptr %38, null
  br i1 %.not30.i, label %45, label %39

39:                                               ; preds = %.lr.ph40.i
  %40 = call i32 @strcmp(ptr noundef nonnull dereferenceable(1) %34, ptr noundef nonnull dereferenceable(1) %38) #10
  %41 = icmp eq i32 %40, 0
  br i1 %41, label %42, label %45

42:                                               ; preds = %39
  %43 = getelementptr inbounds nuw i8, ptr %.039.i, i64 528
  %44 = load ptr, ptr %43, align 8, !tbaa !176
  call void %44(ptr noundef nonnull %.039.i, ptr noundef nonnull %19, ptr noundef %0, i1 noundef zeroext false) #9
  br label %_copy_draw_dsc_from_ref.exit

45:                                               ; preds = %39, %.lr.ph40.i
  %.0.i = load ptr, ptr %.039.i, align 8, !tbaa !4
  %.not29.i = icmp eq ptr %.0.i, null
  br i1 %.not29.i, label %_copy_draw_dsc_from_ref.exit, label %.lr.ph40.i, !llvm.loop !178

_copy_draw_dsc_from_ref.exit:                     ; preds = %45, %.loopexit31.i, %35, %42
  call void @lv_vector_dsc_add_path(ptr noundef %1, ptr noundef %11) #9
  call void @lv_vector_path_delete(ptr noundef %11) #9
  %46 = call ptr @lv_memcpy(ptr noundef nonnull %6, ptr noundef nonnull %4, i64 noundef 36) #9
  call void @llvm.lifetime.end.p0(i64 8, ptr nonnull %5) #9
  call void @llvm.lifetime.end.p0(i64 36, ptr nonnull %4) #9
  ret void
}